; ModuleID = '45/36.c'
source_filename = "45/36.c"
target datalayout = "e-m:e-p270:32:32-p271:32:32-p272:64:64-i64:64-f80:128-n8:16:32:64-S128"
target triple = "x86_64-pc-linux-gnu"

@.str = private unnamed_addr constant [5 x i8] c"%s%s\00", align 1
@.str.1 = private unnamed_addr constant [4 x i8] c"%d\0A\00", align 1

; Function Attrs: noinline nounwind uwtable
define dso_local i32 @main() #0 {
  %1 = alloca i32, align 4
  %2 = alloca i32, align 4
  %3 = alloca [50 x i8], align 16
  %4 = alloca [50 x i8], align 16
  store i32 0, i32* %1, align 4
  store i32 0, i32* %2, align 4
  %5 = call i32 (i8*, ...) @__isoc99_scanf(i8* getelementptr inbounds ([5 x i8], [5 x i8]* @.str, i64 0, i64 0), [50 x i8]* %3, [50 x i8]* %4)
  %6 = getelementptr inbounds [50 x i8], [50 x i8]* %4, i64 0, i64 0
  %7 = getelementptr inbounds [50 x i8], [50 x i8]* %3, i64 0, i64 0
  %8 = call i8* @strstr(i8* %6, i8* %7) #3
  %9 = getelementptr inbounds [50 x i8], [50 x i8]* %4, i64 0, i64 0
  %10 = ptrtoint i8* %8 to i64
  %11 = ptrtoint i8* %9 to i64
  %12 = sub i64 %10, %11
  %13 = trunc i64 %12 to i32
  store i32 %13, i32* %2, align 4
  %14 = load i32, i32* %2, align 4
  %15 = call i32 (i8*, ...) @printf(i8* getelementptr inbounds ([4 x i8], [4 x i8]* @.str.1, i64 0, i64 0), i32 %14)
  ret i32 0
}

declare dso_local i32 @__isoc99_scanf(i8*, ...) #1

; Function Attrs: nounwind readonly
declare dso_local i8* @strstr(i8*, i8*) #2

declare dso_local i32 @printf(i8*, ...) #1


!llvm.module.flags = !{!0}
!llvm.ident = !{!1}

!0 = !{i32 1, !"wchar_size", i32 4}
!1 = !{!"clang version 10.0.0-4ubuntu1 "}
